Certificate:
    Data:
        Version: 3 (0x2)
        Serial Number:
            ce:4e:0c:d6:f7:2b:d6:6c
        Signature Algorithm: sha1WithRSAEncryption
        Issuer: C=GB, ST=Berkshire, L=Newbury, O=My Company Ltd, OU=CA, CN=NULL-friendly CA
        Validity
            Not Before: Aug  4 06:49:34 2009 GMT
            Not After : Aug  2 06:49:34 2019 GMT
        Subject: C=GB, ST=Berkshire, L=Newbury, O=My Company Ltd, OU=CA, CN=NULL-friendly CA
        Subject Public Key Info:
            Public Key Algorithm: rsaEncryption
            RSA Public Key: (2048 bit)
                Modulus (2048 bit):
                    00:ca:bc:b4:01:72:0a:f4:a3:ce:c0:04:8c:43:fd:
                    5d:27:4f:12:38:d3:11:ef:cc:1f:10:02:ef:e2:b8:
                    24:3c:dd:2f:bf:1f:d2:27:11:d9:51:59:d2:f7:a7:
                    c0:3d:38:a4:ff:64:86:ef:dc:f5:95:ca:49:34:8f:
                    46:21:00:54:04:46:a0:d7:11:a1:48:a8:bd:68:27:
                    f9:b2:72:c0:79:28:49:bb:55:b0:19:a0:6a:6f:70:
                    8e:8a:43:a8:a3:e7:d1:13:a0:af:38:4b:09:cb:29:
                    ca:26:c6:0c:3c:4b:20:fd:2f:08:ca:90:c6:41:35:
                    31:ae:db:16:09:69:99:0c:fd:d1:ce:71:44:24:4f:
                    4a:d5:c2:e1:1b:7a:c0:e3:4f:ef:72:8c:1e:32:83:
                    5c:bc:2e:29:f1:3e:a6:7b:be:4b:10:d5:c9:5a:5a:
                    3b:c3:f7:c4:0a:44:f7:41:d9:e8:c7:8c:17:d8:a0:
                    86:5e:9c:5b:19:85:96:ca:68:db:d8:dc:3b:b2:26:
                    79:f8:b1:07:2d:c3:2c:fa:e5:51:8e:aa:da:15:5a:
                    56:fb:dc:f3:05:90:ac:05:d1:54:3b:6d:f5:14:fa:
                    9d:0e:85:da:e9:6f:5d:46:12:f3:02:0a:a2:fe:4b:
                    45:b6:4e:7e:41:34:cc:ab:cc:ca:b2:4a:7f:4d:66:
                    55:81
                Exponent: 65537 (0x10001)
        X509v3 extensions:
            X509v3 Subject Key Identifier: 
                0A:69:39:5F:9D:30:04:18:08:2E:02:0E:E6:EA:9D:B2:26:F6:E2:6A
            X509v3 Authority Key Identifier: 
                keyid:0A:69:39:5F:9D:30:04:18:08:2E:02:0E:E6:EA:9D:B2:26:F6:E2:6A
                DirName:/C=GB/ST=Berkshire/L=Newbury/O=My Company Ltd/OU=CA/CN=NULL-friendly CA
                serial:CE:4E:0C:D6:F7:2B:D6:6C

            X509v3 Basic Constraints: 
                CA:TRUE
    Signature Algorithm: sha1WithRSAEncryption
        02:c9:aa:28:0b:d4:c6:34:2c:a9:b6:99:29:f9:b9:42:97:c5:
        c0:25:0d:1c:cc:35:65:a1:03:97:0d:88:7e:69:99:48:98:4b:
        77:f6:09:1b:e6:fc:6e:52:ab:68:d1:8d:eb:2e:51:c5:7b:94:
        7d:b5:b9:d2:1f:9a:85:67:04:51:21:97:ec:c1:1f:92:8b:74:
        c0:3d:69:17:c1:60:4a:b2:67:6f:47:51:ef:ca:38:d4:d2:c1:
        4c:f8:8e:3c:ab:63:cd:84:67:1e:bf:5e:38:d0:89:f6:ee:a8:
        2d:e6:51:72:c0:b3:ed:ca:5e:58:f7:a8:23:9c:64:dc:92:81:
        56:e5:5e:2d:70:58:cc:f3:f1:3e:00:ff:41:9a:5f:01:28:22:
        da:55:39:4c:c2:50:e8:27:e5:89:55:c0:b6:b2:10:28:2d:9e:
        d6:27:b1:ec:d6:74:f8:a6:31:e9:f5:79:06:46:ab:a8:54:95:
        8f:7e:33:45:5c:fa:32:a6:0b:2f:61:b6:0d:f9:42:66:9b:b8:
        60:be:3d:1d:83:9d:0d:b7:04:13:4c:52:9c:e8:e1:a5:82:fd:
        29:b0:2d:f4:f7:0a:30:a1:8d:01:cb:db:5d:dd:a4:b8:36:09:
        84:56:a9:ea:54:80:3e:fa:18:be:13:89:c7:d4:38:1f:7f:25:
        ad:5b:22:23
-----BEGIN CERTIFICATE-----
MIIERTCCAy2gAwIBAgIJAM5ODNb3K9ZsMA0GCSqGSIb3DQEBBQUAMHQxCzAJBgNV
BAYTAkdCMRIwEAYDVQQIEwlCZXJrc2hpcmUxEDAOBgNVBAcTB05ld2J1cnkxFzAV
BgNVBAoTDk15IENvbXBhbnkgTHRkMQswCQYDVQQLEwJDQTEZMBcGA1UEAxMQTlVM
TC1mcmllbmRseSBDQTAeFw0wOTA4MDQwNjQ5MzRaFw0xOTA4MDIwNjQ5MzRaMHQx
CzAJBgNVBAYTAkdCMRIwEAYDVQQIEwlCZXJrc2hpcmUxEDAOBgNVBAcTB05ld2J1
cnkxFzAVBgNVBAoTDk15IENvbXBhbnkgTHRkMQswCQYDVQQLEwJDQTEZMBcGA1UE
AxMQTlVMTC1mcmllbmRseSBDQTCCASIwDQYJKoZIhvcNAQEBBQADggEPADCCAQoC
ggEBAMq8tAFyCvSjzsAEjEP9XSdPEjjTEe/MHxAC7+K4JDzdL78f0icR2VFZ0ven
wD04pP9khu/c9ZXKSTSPRiEAVARGoNcRoUiovWgn+bJywHkoSbtVsBmgam9wjopD
qKPn0ROgrzhLCcspyibGDDxLIP0vCMqQxkE1Ma7bFglpmQz90c5xRCRPStXC4Rt6
wONP73KMHjKDXLwuKfE+pnu+SxDVyVpaO8P3xApE90HZ6MeMF9ighl6cWxmFlspo
29jcO7ImefixBy3DLPrlUY6q2hVaVvvc8wWQrAXRVDtt9RT6nQ6F2ulvXUYS8wIK
ov5LRbZOfkE0zKvMyrJKf01mVYECAwEAAaOB2TCB1jAdBgNVHQ4EFgQUCmk5X50w
BBgILgIO5uqdsib24mowgaYGA1UdIwSBnjCBm4AUCmk5X50wBBgILgIO5uqdsib2
4mqheKR2MHQxCzAJBgNVBAYTAkdCMRIwEAYDVQQIEwlCZXJrc2hpcmUxEDAOBgNV
BAcTB05ld2J1cnkxFzAVBgNVBAoTDk15IENvbXBhbnkgTHRkMQswCQYDVQQLEwJD
QTEZMBcGA1UEAxMQTlVMTC1mcmllbmRseSBDQYIJAM5ODNb3K9ZsMAwGA1UdEwQF
MAMBAf8wDQYJKoZIhvcNAQEFBQADggEBAALJqigL1MY0LKm2mSn5uUKXxcAlDRzM
NWWhA5cNiH5pmUiYS3f2CRvm/G5Sq2jRjesuUcV7lH21udIfmoVnBFEhl+zBH5KL
dMA9aRfBYEqyZ29HUe/KONTSwUz4jjyrY82EZx6/XjjQifbuqC3mUXLAs+3KXlj3
qCOcZNySgVblXi1wWMzz8T4A/0GaXwEoItpVOUzCUOgn5YlVwLayECgtntYnsezW
dPimMen1eQZGq6hUlY9+M0Vc+jKmCy9htg35QmabuGC+PR2DnQ23BBNMUpzo4aWC
/SmwLfT3CjChjQHL213dpLg2CYRWqepUgD76GL4TicfUOB9/Ja1bIiM=
-----END CERTIFICATE-----
