Certificate:
    Data:
        Version: 3 (0x2)
        Serial Number: 4386 (0x1122)
    Signature Algorithm: sha1WithRSAEncryption
        Issuer: C=US, ST=CA, L=San Jose, O=Wget Testing Department, OU=Testing, CN=WgetTesting/emailAddress=bugs-wget@gnu.org
        Validity
            Not Before: May  9 21:08:52 2017 GMT
            Not After : May  9 21:08:52 2019 GMT
        Subject: CN=., ST=CA, C=US, O=Client
        Subject Public Key Info:
            Public Key Algorithm: rsaEncryption
                Public-Key: (4096 bit)
                Modulus:
                    00:c8:e0:0f:fd:d5:96:99:1d:f5:8e:4a:d7:84:85:
                    fc:48:8b:e4:cf:78:27:22:ea:1b:b4:4e:f0:a2:05:
                    29:78:37:43:42:17:fe:8d:98:4b:4b:8a:f6:b2:92:
                    23:2c:f2:af:c8:9d:36:57:03:90:82:00:02:0c:f8:
                    33:14:f2:5c:5f:cc:8f:f8:14:b5:df:a8:e3:0d:d1:
                    bf:5a:f2:8d:24:37:66:1a:31:99:7e:f7:8d:8e:86:
                    fd:ea:a6:73:60:84:dc:1c:d9:28:87:92:9f:cf:c4:
                    8e:9f:2b:ce:c3:8a:20:ce:8d:5b:66:fe:78:f1:bd:
                    7b:57:b1:ad:bc:db:8c:0a:a8:92:c1:92:5d:6f:b9:
                    5f:7f:c7:62:4d:59:60:48:8e:1f:a3:02:2f:79:26:
                    68:6f:ed:0a:95:07:c8:e5:9a:93:ba:cb:af:c7:a9:
                    06:a7:99:b4:ce:1f:26:b7:d5:f6:bd:b4:b2:ad:14:
                    fe:df:8c:41:94:d4:d2:41:18:43:fe:19:0e:43:67:
                    10:8a:ac:f1:47:1c:5a:71:ed:d7:76:aa:67:81:67:
                    1d:6f:77:db:c1:93:ee:36:ec:34:6f:c8:97:73:57:
                    09:dc:9a:b8:54:35:ae:a3:91:2a:5d:f3:e4:70:77:
                    7c:bc:0d:d8:f5:a2:f0:2d:b2:ba:3e:b6:ce:8a:30:
                    16:ea:6d:20:b8:ac:dd:eb:3c:a5:62:c5:7d:3a:ef:
                    df:64:83:a7:ab:a1:c3:65:7a:54:fc:a4:26:0f:64:
                    a5:83:ed:29:8f:05:ef:aa:2f:98:af:87:98:87:34:
                    a7:31:55:09:75:37:7d:70:c3:44:14:c4:05:b2:f8:
                    6b:6b:25:b4:55:d5:fe:29:3f:ab:f0:d1:e6:3f:dc:
                    e9:c6:83:5d:f5:4a:ca:34:e0:3d:52:a4:dd:86:09:
                    e5:3e:b3:9e:f3:79:99:af:b1:6b:7e:6e:c8:0d:04:
                    28:fa:38:59:94:71:3c:d2:39:84:a5:56:41:ae:8c:
                    63:2d:5c:9b:79:ce:f0:a6:69:6c:74:b7:36:e9:87:
                    67:ad:5b:61:6f:d2:53:d4:7a:94:e1:26:29:d0:56:
                    02:f5:6e:15:dc:a9:0b:e6:37:2a:32:9c:35:f3:72:
                    2d:3d:e2:d4:25:48:a9:d0:c9:7b:cb:1a:4d:c1:44:
                    5c:57:ab:75:65:ae:06:b2:40:b6:55:a8:2e:fb:fa:
                    6e:0b:75:eb:86:02:ea:63:fe:9a:74:9d:02:4b:60:
                    95:ef:53:04:13:87:07:6a:52:64:ba:e6:40:09:ab:
                    a9:50:a3:12:ce:75:51:35:af:37:34:60:6a:e9:d7:
                    3c:00:2b:4a:92:75:48:f3:4a:26:13:08:04:d0:47:
                    05:a1:07
                Exponent: 65537 (0x10001)
        X509v3 extensions:
            X509v3 Basic Constraints: critical
                CA:TRUE
            X509v3 Subject Key Identifier: 
                41:CD:E0:FB:C1:87:D6:77:38:B5:A3:94:8A:D0:5B:5C:87:70:32:E9
            X509v3 Authority Key Identifier: 
                keyid:17:ED:93:43:8F:A7:A6:00:75:D4:E8:B6:82:0D:88:37:7E:C0:6D:08

            X509v3 Key Usage: 
                Digital Signature, Key Encipherment, Certificate Sign, CRL Sign
            X509v3 Extended Key Usage: 
                TLS Web Server Authentication
            X509v3 CRL Distribution Points: 

                Full Name:
                  URI:http://test.wgettest.org/Bogus.crl

                Full Name:
                  URI:http://test.wgettest.org/Bogus.crl

            X509v3 Subject Alternative Name: 
                DNS:WgetTestingServer
            Authority Information Access: 
                CA Issuers - URI:http://test.wgettest.com/Bogus.crt
                CA Issuers - URI:http://test.wgettest.com/Bogus.crt
                OCSP - URI:http://test.wgettest.com/ocsp/
                OCSP - URI:http://test.wgettest.com/ocsp/

    Signature Algorithm: sha1WithRSAEncryption
         46:a4:f3:c2:63:cf:c3:76:84:aa:a3:ba:27:32:25:15:54:e6:
         69:d2:2f:7c:c9:68:88:01:10:8c:0d:4e:f7:3c:cc:e5:7f:e6:
         87:55:e9:80:69:e0:05:cb:40:84:65:cc:4d:35:f3:a0:6a:95:
         28:08:cb:95:16:9c:2b:d2:15:5b:d7:43:81:e1:ff:7e:e0:0f:
         d7:25:01:f5:3d:d5:0f:88:15:1b:59:5f:6f:31:75:03:19:2b:
         24:5a:d4:b4:e8:1a:19:81:c9:c6:b9:e2:b2:cb:dc:fd:b3:fc:
         18:ec:76:68:2d:9e:78:41:31:0b:c0:f2:ca:70:93:66:6b:97:
         cf:b8:8e:69:3e:86:63:7b:12:40:8f:1b:de:25:2a:a7:97:83:
         4f:a1:7e:0b:07:15:bb:42:e9:a0:a8:80:17:c2:75:a9:35:e6:
         57:bf:09:83:71:b5:51:3b:95:37:79:d6:8b:4e:96:86:22:d3:
         54:53:ac:af:ea:ec:0c:58:4c:18:11:4d:77:35:ae:40:7c:6d:
         5d:c5:36:46:19:fa:d9:83:76:cf:e6:70:69:3a:32:a3:0c:4f:
         6f:28:18:0d:6a:d3:47:b4:e8:e3:77:a8:90:0d:74:08:f1:4e:
         68:45:27:fc:22:57:ad:63:92:7c:fd:bf:44:ad:ec:be:12:42:
         49:b9:e0:23:2c:95:98:f2:d3:07:a3:00:6a:4f:eb:3d:8b:6d:
         c6:0a:ef:1e:c8:71:1b:d2:3b:2e:81:86:5b:36:05:6a:f4:3f:
         25:cc:4a:d1:a4:d9:f6:8e:6d:a2:db:54:1e:c5:1b:dd:44:e3:
         fc:0b:8b:8c:84:7d:e0:bf:1b:d4:53:3e:ab:31:fd:f4:25:1f:
         29:b9:55:f0:92:0e:fe:ab:46:cc:a1:50:96:10:6a:d9:c0:cd:
         6d:c1:e9:86:77:7e:ef:93:bf:be:03:21:87:d9:dc:36:53:41:
         f6:a6:6c:f2:23:ee:be:34:4a:2e:95:29:09:7d:8f:1a:10:d2:
         ff:a5:6b:26:93:e1:83:da:be:22:fd:7f:14:f2:1c:03:f5:64:
         f8:75:00:f0:da:5e:78:e3:07:90:a0:4a:16:1c:31:70:09:b5:
         46:4d:71:42:64:19:b0:53:ce:27:f7:9a:34:5d:c4:df:7d:06:
         bf:af:8e:c2:9a:19:c1:f9:90:36:eb:41:0c:2c:3d:51:22:bb:
         18:eb:ed:0b:5c:92:15:60:79:42:be:c1:f6:f1:46:29:c9:6c:
         0a:ba:f9:4c:46:44:1e:32:7d:83:df:55:b1:31:1f:c2:db:22:
         a4:bd:2d:79:d1:ca:a1:80:12:ce:5a:26:68:54:8b:d3:f4:8b:
         cf:45:d3:57:92:70:b6:7c
-----BEGIN CERTIFICATE-----
MIIHDjCCBPagAwIBAgICESIwDQYJKoZIhvcNAQEFBQAwgZkxCzAJBgNVBAYTAlVT
MQswCQYDVQQIDAJDQTERMA8GA1UEBwwIU2FuIEpvc2UxIDAeBgNVBAoMF1dnZXQg
VGVzdGluZyBEZXBhcnRtZW50MRAwDgYDVQQLDAdUZXN0aW5nMRQwEgYDVQQDDAtX
Z2V0VGVzdGluZzEgMB4GCSqGSIb3DQEJARYRYnVncy13Z2V0QGdudS5vcmcwHhcN
MTcwNTA5MjEwODUyWhcNMTkwNTA5MjEwODUyWjA3MQowCAYDVQQDDAEuMQswCQYD
VQQIDAJDQTELMAkGA1UEBhMCVVMxDzANBgNVBAoMBkNsaWVudDCCAiIwDQYJKoZI
hvcNAQEBBQADggIPADCCAgoCggIBAMjgD/3Vlpkd9Y5K14SF/EiL5M94JyLqG7RO
8KIFKXg3Q0IX/o2YS0uK9rKSIyzyr8idNlcDkIIAAgz4MxTyXF/Mj/gUtd+o4w3R
v1ryjSQ3ZhoxmX73jY6G/eqmc2CE3BzZKIeSn8/Ejp8rzsOKIM6NW2b+ePG9e1ex
rbzbjAqoksGSXW+5X3/HYk1ZYEiOH6MCL3kmaG/tCpUHyOWak7rLr8epBqeZtM4f
JrfV9r20sq0U/t+MQZTU0kEYQ/4ZDkNnEIqs8UccWnHt13aqZ4FnHW9328GT7jbs
NG/Il3NXCdyauFQ1rqORKl3z5HB3fLwN2PWi8C2yuj62zoowFuptILis3es8pWLF
fTrv32SDp6uhw2V6VPykJg9kpYPtKY8F76ovmK+HmIc0pzFVCXU3fXDDRBTEBbL4
a2sltFXV/ik/q/DR5j/c6caDXfVKyjTgPVKk3YYJ5T6znvN5ma+xa35uyA0EKPo4
WZRxPNI5hKVWQa6MYy1cm3nO8KZpbHS3NumHZ61bYW/SU9R6lOEmKdBWAvVuFdyp
C+Y3KjKcNfNyLT3i1CVIqdDJe8saTcFEXFerdWWuBrJAtlWoLvv6bgt164YC6mP+
mnSdAktgle9TBBOHB2pSZLrmQAmrqVCjEs51UTWvNzRgaunXPAArSpJ1SPNKJhMI
BNBHBaEHAgMBAAGjggG/MIIBuzAPBgNVHRMBAf8EBTADAQH/MB0GA1UdDgQWBBRB
zeD7wYfWdzi1o5SK0Ftch3Ay6TAfBgNVHSMEGDAWgBQX7ZNDj6emAHXU6LaCDYg3
fsBtCDALBgNVHQ8EBAMCAaYwEwYDVR0lBAwwCgYIKwYBBQUHAwEwXQYDVR0fBFYw
VDAooCagJIYiaHR0cDovL3Rlc3Qud2dldHRlc3Qub3JnL0JvZ3VzLmNybDAooCag
JIYiaHR0cDovL3Rlc3Qud2dldHRlc3Qub3JnL0JvZ3VzLmNybDAcBgNVHREEFTAT
ghFXZ2V0VGVzdGluZ1NlcnZlcjCByAYIKwYBBQUHAQEEgbswgbgwLgYIKwYBBQUH
MAKGImh0dHA6Ly90ZXN0LndnZXR0ZXN0LmNvbS9Cb2d1cy5jcnQwLgYIKwYBBQUH
MAKGImh0dHA6Ly90ZXN0LndnZXR0ZXN0LmNvbS9Cb2d1cy5jcnQwKgYIKwYBBQUH
MAGGHmh0dHA6Ly90ZXN0LndnZXR0ZXN0LmNvbS9vY3NwLzAqBggrBgEFBQcwAYYe
aHR0cDovL3Rlc3Qud2dldHRlc3QuY29tL29jc3AvMA0GCSqGSIb3DQEBBQUAA4IC
AQBGpPPCY8/DdoSqo7onMiUVVOZp0i98yWiIARCMDU73PMzlf+aHVemAaeAFy0CE
ZcxNNfOgapUoCMuVFpwr0hVb10OB4f9+4A/XJQH1PdUPiBUbWV9vMXUDGSskWtS0
6BoZgcnGueKyy9z9s/wY7HZoLZ54QTELwPLKcJNma5fPuI5pPoZjexJAjxveJSqn
l4NPoX4LBxW7QumgqIAXwnWpNeZXvwmDcbVRO5U3edaLTpaGItNUU6yv6uwMWEwY
EU13Na5AfG1dxTZGGfrZg3bP5nBpOjKjDE9vKBgNatNHtOjjd6iQDXQI8U5oRSf8
IletY5J8/b9Erey+EkJJueAjLJWY8tMHowBqT+s9i23GCu8eyHEb0jsugYZbNgVq
9D8lzErRpNn2jm2i21QexRvdROP8C4uMhH3gvxvUUz6rMf30JR8puVXwkg7+q0bM
oVCWEGrZwM1twemGd37vk7++AyGH2dw2U0H2pmzyI+6+NEoulSkJfY8aENL/pWsm
k+GD2r4i/X8U8hwD9WT4dQDw2l544weQoEoWHDFwCbVGTXFCZBmwU84n95o0XcTf
fQa/r47CmhnB+ZA260EMLD1RIrsY6+0LXJIVYHlCvsH28UYpyWwKuvlMRkQeMn2D
31WxMR/C2yKkvS150cqhgBLOWiZoVIvT9IvPRdNXknC2fA==
-----END CERTIFICATE-----
