Certificate:
    Data:
        Version: 3 (0x2)
        Serial Number: 4388 (0x1124)
    Signature Algorithm: sha1WithRSAEncryption
        Issuer: CN=ica-wgetTestingServer, ST=CA, C=US/emailAddress=icatester, O=Int
        Validity
            Not Before: May  9 21:30:44 2017 GMT
            Not After : May  9 21:30:44 2019 GMT
        Subject: CN=WgetTestingServer, ST=CA, C=US/emailAddress=usertester, O=Int
        Subject Public Key Info:
            Public Key Algorithm: rsaEncryption
                Public-Key: (4096 bit)
                Modulus:
                    00:b9:ed:5a:89:c5:8e:20:a2:8d:c6:ee:0c:62:f6:
                    9a:65:4d:da:3a:04:27:b8:23:cf:8c:1a:5f:1c:79:
                    09:1a:e5:eb:57:82:f3:48:66:b2:74:bb:95:a4:00:
                    87:5a:27:88:57:7e:ee:80:87:ec:d2:ca:89:86:53:
                    0d:79:f6:9c:66:e0:19:ad:78:61:8b:20:9b:3e:da:
                    b4:42:3b:bd:b8:62:f1:0e:40:26:73:f2:e5:eb:6e:
                    89:de:d7:26:63:11:cf:bc:30:8a:7d:ea:e1:a1:9c:
                    9e:bc:e8:5c:8a:50:7f:c8:cf:8c:8c:09:e2:ae:1b:
                    3f:18:1d:54:7e:6a:a8:ed:a9:04:9e:fc:fc:48:47:
                    a7:d5:a3:de:f3:ac:63:4f:40:ee:27:de:02:0d:f8:
                    6c:fb:98:dc:73:f1:c6:bc:48:7f:fb:f4:3c:8f:7a:
                    57:7d:ac:76:51:d7:8a:c7:7b:81:65:37:ed:cb:99:
                    f2:c8:6b:8d:88:10:9f:ea:e1:23:58:14:40:0a:bf:
                    67:f7:8b:e9:cf:56:dd:f8:5c:2e:35:86:a7:fb:20:
                    e0:8f:3c:bb:20:f6:c3:c3:e9:9d:91:67:15:65:50:
                    ba:d9:6a:75:1e:93:a2:cd:66:ed:d0:58:bf:bd:1a:
                    7f:ed:de:25:ff:03:fa:82:ab:41:52:34:8c:3d:6b:
                    ae:9b:6a:3e:05:2b:3f:87:88:0d:8c:a4:04:0a:cc:
                    b1:f6:0c:02:3b:0c:98:47:6c:1f:a4:0e:d3:ce:ef:
                    5f:e8:e0:23:64:84:04:64:ad:d0:18:44:b0:93:7c:
                    43:f5:5a:2f:8d:d6:43:ed:fa:a1:e8:da:42:e2:cb:
                    56:c5:28:e7:c6:1c:b0:04:3b:23:57:76:7d:20:b4:
                    30:b1:9c:69:54:7c:45:db:1b:7f:8e:83:a9:89:7c:
                    59:32:30:9b:70:7e:bc:b3:33:96:89:33:c9:6c:fe:
                    79:b9:06:ed:6b:e5:70:65:9f:ad:35:e0:13:0c:27:
                    17:4b:70:67:e3:95:f3:a0:90:b6:fb:06:4a:33:21:
                    4f:7b:c4:ba:a2:b3:47:bd:cb:3d:88:3e:46:31:27:
                    e3:83:f8:8f:25:54:83:a9:63:a3:1b:33:82:7c:ea:
                    78:2d:60:10:fe:54:a8:d5:cf:a1:c4:e6:8b:0e:a5:
                    98:5d:f7:1d:6c:36:35:58:72:9a:81:06:a7:ed:7d:
                    3a:ae:99:62:4f:af:d2:88:c9:ad:32:b0:55:aa:ce:
                    ee:0e:5d:70:2a:84:a8:ef:66:a5:a4:3c:c4:f1:96:
                    e7:e4:05:7c:8d:c1:a5:ac:7f:54:3c:bd:b3:7e:1d:
                    31:ad:d5:c2:73:60:db:23:c6:29:9b:d3:f9:4f:d6:
                    7d:f7:ed
                Exponent: 65537 (0x10001)
        X509v3 extensions:
            X509v3 Basic Constraints: critical
                CA:TRUE
            X509v3 Subject Key Identifier: 
                6F:00:AE:EF:A0:15:4C:5C:1E:A7:B4:6C:8F:5F:1F:DD:EE:C6:6C:11
            X509v3 Authority Key Identifier: 
                keyid:24:D0:7C:F3:88:2A:73:FF:87:A0:CB:69:E0:6B:2E:16:BD:4E:D5:E6

            X509v3 Key Usage: 
                Digital Signature, Key Encipherment
            X509v3 Extended Key Usage: 
                TLS Web Server Authentication
            X509v3 CRL Distribution Points: 

                Full Name:
                  URI:http://intertest.wgettest.org/Bogus.crl

                Full Name:
                  URI:http://intertest.wgettest.org/Bogus.crl

            X509v3 Subject Alternative Name: 
                DNS:WgetTestingServer
            Authority Information Access: 
                CA Issuers - URI:http://intertest.wgettest.com/Bogus.crt
                CA Issuers - URI:http://intertest.wgettest.com/Bogus.crt
                OCSP - URI:http://intertest.wgettest.com/ocsp/
                OCSP - URI:http://intertest.wgettest.com/ocsp/

    Signature Algorithm: sha1WithRSAEncryption
         4b:e0:19:75:65:2d:0c:fe:d4:b6:3d:a1:02:8f:3d:89:a6:6b:
         12:c6:ee:e3:79:a0:b4:af:fa:15:97:be:35:f7:06:00:39:ba:
         f9:30:e4:55:d9:98:fc:a5:b7:54:22:52:71:3a:35:d4:3b:9e:
         00:1e:5e:bb:8b:4f:21:bd:c7:df:7d:65:4c:cc:32:4e:ab:51:
         95:e2:59:b4:09:c2:78:8d:bf:ac:3b:d9:ca:9e:dc:39:ac:95:
         d2:91:f9:28:31:cd:93:54:db:7a:f3:c8:a2:76:df:a0:b3:8a:
         e1:00:31:a5:ba:f3:3e:3f:2e:b8:7b:cb:bb:a3:61:83:5f:6a:
         ee:37:88:2f:89:a5:b6:79:ef:3c:c1:e7:cd:0b:5f:51:d4:de:
         ab:85:97:f5:8c:8d:d6:59:1e:e6:db:a3:ab:1d:1d:5f:fd:ba:
         70:39:97:a1:0f:b4:6d:cc:1d:5d:49:41:9c:12:9e:b3:19:de:
         64:ab:83:2f:f3:bf:6f:26:14:e4:be:1a:50:9a:78:22:99:c0:
         39:35:ff:b1:45:ea:d3:8f:0d:ed:3d:c2:b0:77:71:26:12:4a:
         f0:81:83:d7:c9:f2:0c:e8:c2:7b:9b:96:7b:06:ab:e5:ef:ac:
         e6:34:58:ed:d3:9b:a3:b9:9e:7e:78:16:6e:ba:21:d3:48:01:
         bc:3e:5f:6e:56:63:cc:4a:f4:e0:12:5e:8b:68:73:b7:3a:0e:
         1d:cd:44:15:6e:5c:f4:fd:8e:02:f2:a4:37:ce:08:da:5c:86:
         26:57:65:30:5a:13:29:08:ab:0f:f6:a6:ab:99:de:f0:c5:bf:
         15:a1:30:ea:23:ca:af:0a:8b:a4:58:8d:12:4f:52:27:fc:52:
         dc:6d:9a:66:0f:43:c7:28:29:92:92:da:e7:9c:5c:fb:29:e6:
         31:06:81:a9:8c:51:86:d2:a2:08:bd:76:fb:61:4b:8e:49:48:
         9a:ca:a3:04:6c:dd:59:32:e1:41:f3:09:0b:9b:c0:60:64:34:
         87:21:cf:33:bf:17:14:c2:d5:05:0c:4d:21:8a:4d:5e:13:bf:
         32:c7:59:bb:48:de:82:15:8e:24:93:4c:c8:8e:e7:12:86:af:
         69:5c:5c:d8:a0:90:80:64:74:84:bb:ce:2e:e9:11:06:96:ed:
         52:3a:ba:1f:48:a2:13:14:d1:26:e8:a2:13:6d:2e:ec:ad:28:
         f5:74:da:d7:7e:5e:eb:eb:4b:8d:3d:73:c1:ac:38:20:52:e6:
         c5:72:fa:7e:e0:6c:fa:21:25:42:f8:fe:3a:1d:0a:4b:c1:ee:
         3b:36:61:b9:58:ec:09:4a:4d:4f:51:e5:7c:af:b4:1b:8d:28:
         45:e1:67:d1:2c:72:47:7d
-----BEGIN CERTIFICATE-----
MIIHHDCCBQSgAwIBAgICESQwDQYJKoZIhvcNAQEFBQAwYjEeMBwGA1UEAwwVaWNh
LXdnZXRUZXN0aW5nU2VydmVyMQswCQYDVQQIDAJDQTELMAkGA1UEBhMCVVMxGDAW
BgkqhkiG9w0BCQEWCWljYXRlc3RlcjEMMAoGA1UECgwDSW50MB4XDTE3MDUwOTIx
MzA0NFoXDTE5MDUwOTIxMzA0NFowXzEaMBgGA1UEAwwRV2dldFRlc3RpbmdTZXJ2
ZXIxCzAJBgNVBAgMAkNBMQswCQYDVQQGEwJVUzEZMBcGCSqGSIb3DQEJARYKdXNl
cnRlc3RlcjEMMAoGA1UECgwDSW50MIICIjANBgkqhkiG9w0BAQEFAAOCAg8AMIIC
CgKCAgEAue1aicWOIKKNxu4MYvaaZU3aOgQnuCPPjBpfHHkJGuXrV4LzSGaydLuV
pACHWieIV37ugIfs0sqJhlMNefacZuAZrXhhiyCbPtq0Qju9uGLxDkAmc/Ll626J
3tcmYxHPvDCKferhoZyevOhcilB/yM+MjAnirhs/GB1Ufmqo7akEnvz8SEen1aPe
86xjT0DuJ94CDfhs+5jcc/HGvEh/+/Q8j3pXfax2UdeKx3uBZTfty5nyyGuNiBCf
6uEjWBRACr9n94vpz1bd+FwuNYan+yDgjzy7IPbDw+mdkWcVZVC62Wp1HpOizWbt
0Fi/vRp/7d4l/wP6gqtBUjSMPWuum2o+BSs/h4gNjKQECsyx9gwCOwyYR2wfpA7T
zu9f6OAjZIQEZK3QGESwk3xD9VovjdZD7fqh6NpC4stWxSjnxhywBDsjV3Z9ILQw
sZxpVHxF2xt/joOpiXxZMjCbcH68szOWiTPJbP55uQbta+VwZZ+tNeATDCcXS3Bn
45XzoJC2+wZKMyFPe8S6orNHvcs9iD5GMSfjg/iPJVSDqWOjGzOCfOp4LWAQ/lSo
1c+hxOaLDqWYXfcdbDY1WHKagQan7X06rpliT6/SiMmtMrBVqs7uDl1wKoSo72al
pDzE8Zbn5AV8jcGlrH9UPL2zfh0xrdXCc2DbI8Ypm9P5T9Z99+0CAwEAAaOCAd0w
ggHZMA8GA1UdEwEB/wQFMAMBAf8wHQYDVR0OBBYEFG8Aru+gFUxcHqe0bI9fH93u
xmwRMB8GA1UdIwQYMBaAFCTQfPOIKnP/h6DLaeBrLha9TtXmMAsGA1UdDwQEAwIF
oDATBgNVHSUEDDAKBggrBgEFBQcDATBnBgNVHR8EYDBeMC2gK6AphidodHRwOi8v
aW50ZXJ0ZXN0LndnZXR0ZXN0Lm9yZy9Cb2d1cy5jcmwwLaAroCmGJ2h0dHA6Ly9p
bnRlcnRlc3Qud2dldHRlc3Qub3JnL0JvZ3VzLmNybDAcBgNVHREEFTATghFXZ2V0
VGVzdGluZ1NlcnZlcjCB3AYIKwYBBQUHAQEEgc8wgcwwMwYIKwYBBQUHMAKGJ2h0
dHA6Ly9pbnRlcnRlc3Qud2dldHRlc3QuY29tL0JvZ3VzLmNydDAzBggrBgEFBQcw
AoYnaHR0cDovL2ludGVydGVzdC53Z2V0dGVzdC5jb20vQm9ndXMuY3J0MC8GCCsG
AQUFBzABhiNodHRwOi8vaW50ZXJ0ZXN0LndnZXR0ZXN0LmNvbS9vY3NwLzAvBggr
BgEFBQcwAYYjaHR0cDovL2ludGVydGVzdC53Z2V0dGVzdC5jb20vb2NzcC8wDQYJ
KoZIhvcNAQEFBQADggIBAEvgGXVlLQz+1LY9oQKPPYmmaxLG7uN5oLSv+hWXvjX3
BgA5uvkw5FXZmPylt1QiUnE6NdQ7ngAeXruLTyG9x999ZUzMMk6rUZXiWbQJwniN
v6w72cqe3DmsldKR+SgxzZNU23rzyKJ236CziuEAMaW68z4/Lrh7y7ujYYNfau43
iC+JpbZ57zzB580LX1HU3quFl/WMjdZZHubbo6sdHV/9unA5l6EPtG3MHV1JQZwS
nrMZ3mSrgy/zv28mFOS+GlCaeCKZwDk1/7FF6tOPDe09wrB3cSYSSvCBg9fJ8gzo
wnublnsGq+XvrOY0WO3Tm6O5nn54Fm66IdNIAbw+X25WY8xK9OASXotoc7c6Dh3N
RBVuXPT9jgLypDfOCNpchiZXZTBaEykIqw/2pquZ3vDFvxWhMOojyq8Ki6RYjRJP
Uif8UtxtmmYPQ8coKZKS2uecXPsp5jEGgamMUYbSogi9dvthS45JSJrKowRs3Vky
4UHzCQubwGBkNIchzzO/FxTC1QUMTSGKTV4TvzLHWbtI3oIVjiSTTMiO5xKGr2lc
XNigkIBkdIS7zi7pEQaW7VI6uh9IohMU0SboohNtLuytKPV02td+XuvrS409c8Gs
OCBS5sVy+n7gbPohJUL4/jodCkvB7js2YblY7AlKTU9R5XyvtBuNKEXhZ9Esckd9
-----END CERTIFICATE-----
